; Function Attrs: mustprogress nofree nounwind memory(readwrite, inaccessiblemem: write) uwtable
define void @_ZN5Ipopt11DenseVector19ElementWiseSqrtImplEv(ptr nocapture noundef nonnull align 8 dereferenceable(248) %0) unnamed_addr #9 align 2 {
  %2 = getelementptr inbounds i8, ptr %0, i64 233
  %3 = load i8, ptr %2, align 1
  %4 = and i8 %3, 1
  %.not = icmp eq i8 %4, 0
  br i1 %.not, label %.preheader, label %11

.preheader:                                       ; preds = %1
  %5 = getelementptr inbounds i8, ptr %0, i64 56
  %6 = load ptr, ptr %5, align 8
  %7 = getelementptr inbounds i8, ptr %6, i64 12
  %8 = load i32, ptr %7, align 4
  %9 = icmp sgt i32 %8, 0
  br i1 %9, label %.lr.ph, label %.loopexit

.lr.ph:                                           ; preds = %.preheader
  %10 = getelementptr inbounds i8, ptr %0, i64 216
  br label %15

11:                                               ; preds = %1
  %12 = getelementptr inbounds i8, ptr %0, i64 240
  %13 = load double, ptr %12, align 8
  %14 = tail call double @sqrt(double noundef %13) #15
  store double %14, ptr %12, align 8
  br label %.loopexit

15:                                               ; preds = %.lr.ph, %15
  %indvars.iv = phi i64 [ 0, %.lr.ph ], [ %indvars.iv.next, %15 ]
  %16 = load ptr, ptr %10, align 8
  %17 = getelementptr inbounds double, ptr %16, i64 %indvars.iv
  %18 = load double, ptr %17, align 8
  %19 = tail call double @sqrt(double noundef %18) #15
  %20 = load ptr, ptr %10, align 8
  %21 = getelementptr inbounds double, ptr %20, i64 %indvars.iv
  store double %19, ptr %21, align 8
  %indvars.iv.next = add nuw nsw i64 %indvars.iv, 1
  %22 = load ptr, ptr %5, align 8
  %23 = getelementptr inbounds i8, ptr %22, i64 12
  %24 = load i32, ptr %23, align 4
  %25 = sext i32 %24 to i64
  %26 = icmp slt i64 %indvars.iv.next, %25
  br i1 %26, label %15, label %.loopexit, !llvm.loop !25

.loopexit:                                        ; preds = %15, %.preheader, %11
  ret void
}